target datalayout = "e-m:e-p270:32:32-p271:32:32-p272:64:64-i64:64-i128:128-f80:128-n8:16:32:64-S128"
target triple = "x86_64-unknown-linux-gnu"

; Function Attrs: nounwind sspstrong uwtable
define internal void @bitmap_copy(ptr noundef %dst, ptr noundef %src, i64 noundef %nbits) #0 {
entry:
  %dst.addr = alloca ptr, align 8
  %src.addr = alloca ptr, align 8
  %nbits.addr = alloca i64, align 8
  %len = alloca i64, align 8
  store ptr %dst, ptr %dst.addr, align 8
  store ptr %src, ptr %src.addr, align 8
  store i64 %nbits, ptr %nbits.addr, align 8
  %0 = load i64, ptr %nbits.addr, align 8
  %cmp = icmp ule i64 %0, 64
  br i1 %cmp, label %if.then, label %if.else

if.then:                                          ; preds = %entry
  %1 = load ptr, ptr %src.addr, align 8
  %2 = load i64, ptr %1, align 8
  %3 = load ptr, ptr %dst.addr, align 8
  store i64 %2, ptr %3, align 8
  br label %if.end

if.else:                                          ; preds = %entry
  %4 = load i64, ptr %nbits.addr, align 8
  %add = add i64 %4, 64
  %sub = sub i64 %add, 1
  %div = udiv i64 %sub, 64
  %mul = mul i64 %div, 8
  store i64 %mul, ptr %len, align 8
  %5 = load ptr, ptr %dst.addr, align 8
  %6 = load ptr, ptr %src.addr, align 8
  %7 = load i64, ptr %len, align 8
  call void @llvm.memcpy.p0.p0.i64(ptr align 8 %5, ptr align 8 %6, i64 %7, i1 false)
  br label %if.end

if.end:                                           ; preds = %if.else, %if.then
  ret void
}

; Function Attrs: nounwind sspstrong uwtable
define dso_local void @bitmap_copy_with_src_offset(ptr noundef %dst, ptr noundef %src, i64 noundef %shift, i64 noundef %nbits) #0 {
entry:
  %dst.addr = alloca ptr, align 8
  %src.addr = alloca ptr, align 8
  %shift.addr = alloca i64, align 8
  %nbits.addr = alloca i64, align 8
  %left_mask = alloca i64, align 8
  %right_mask = alloca i64, align 8
  %last_mask = alloca i64, align 8
  store ptr %dst, ptr %dst.addr, align 8
  store ptr %src, ptr %src.addr, align 8
  store i64 %shift, ptr %shift.addr, align 8
  store i64 %nbits, ptr %nbits.addr, align 8
  %0 = load i64, ptr %shift.addr, align 8
  %div = udiv i64 %0, 64
  %1 = load ptr, ptr %src.addr, align 8
  %add.ptr = getelementptr i64, ptr %1, i64 %div
  store ptr %add.ptr, ptr %src.addr, align 8
  %2 = load i64, ptr %shift.addr, align 8
  %rem = urem i64 %2, 64
  store i64 %rem, ptr %shift.addr, align 8
  %3 = load i64, ptr %shift.addr, align 8
  %tobool = icmp ne i64 %3, 0
  br i1 %tobool, label %if.end, label %if.then

if.then:                                          ; preds = %entry
  %4 = load ptr, ptr %dst.addr, align 8
  %5 = load ptr, ptr %src.addr, align 8
  %6 = load i64, ptr %nbits.addr, align 8
  call void @bitmap_copy(ptr noundef %4, ptr noundef %5, i64 noundef %6)
  br label %if.end27

if.end:                                           ; preds = %entry
  %7 = load i64, ptr %shift.addr, align 8
  %shl = shl i64 1, %7
  %sub = sub i64 %shl, 1
  store i64 %sub, ptr %right_mask, align 8
  %8 = load i64, ptr %right_mask, align 8
  %not = xor i64 %8, -1
  store i64 %not, ptr %left_mask, align 8
  br label %while.cond

while.cond:                                       ; preds = %while.body, %if.end
  %9 = load i64, ptr %nbits.addr, align 8
  %cmp = icmp uge i64 %9, 64
  br i1 %cmp, label %while.body, label %while.end

while.body:                                       ; preds = %while.cond
  %10 = load ptr, ptr %src.addr, align 8
  %11 = load i64, ptr %10, align 8
  %12 = load i64, ptr %left_mask, align 8
  %and = and i64 %11, %12
  %13 = load i64, ptr %shift.addr, align 8
  %shr = lshr i64 %and, %13
  %14 = load ptr, ptr %dst.addr, align 8
  store i64 %shr, ptr %14, align 8
  %15 = load ptr, ptr %src.addr, align 8
  %arrayidx = getelementptr i64, ptr %15, i64 1
  %16 = load i64, ptr %arrayidx, align 8
  %17 = load i64, ptr %right_mask, align 8
  %and1 = and i64 %16, %17
  %18 = load i64, ptr %shift.addr, align 8
  %sub2 = sub i64 64, %18
  %shl3 = shl i64 %and1, %sub2
  %19 = load ptr, ptr %dst.addr, align 8
  %20 = load i64, ptr %19, align 8
  %or = or i64 %20, %shl3
  store i64 %or, ptr %19, align 8
  %21 = load ptr, ptr %dst.addr, align 8
  %incdec.ptr = getelementptr i64, ptr %21, i32 1
  store ptr %incdec.ptr, ptr %dst.addr, align 8
  %22 = load ptr, ptr %src.addr, align 8
  %incdec.ptr4 = getelementptr i64, ptr %22, i32 1
  store ptr %incdec.ptr4, ptr %src.addr, align 8
  %23 = load i64, ptr %nbits.addr, align 8
  %sub5 = sub i64 %23, 64
  store i64 %sub5, ptr %nbits.addr, align 8
  br label %while.cond, !llvm.loop !24

while.end:                                        ; preds = %while.cond
  %24 = load i64, ptr %nbits.addr, align 8
  %25 = load i64, ptr %shift.addr, align 8
  %sub6 = sub i64 64, %25
  %cmp7 = icmp ugt i64 %24, %sub6
  br i1 %cmp7, label %if.then8, label %if.else

if.then8:                                         ; preds = %while.end
  %26 = load ptr, ptr %src.addr, align 8
  %27 = load i64, ptr %26, align 8
  %28 = load i64, ptr %left_mask, align 8
  %and9 = and i64 %27, %28
  %29 = load i64, ptr %shift.addr, align 8
  %shr10 = lshr i64 %and9, %29
  %30 = load ptr, ptr %dst.addr, align 8
  store i64 %shr10, ptr %30, align 8
  %31 = load i64, ptr %shift.addr, align 8
  %sub11 = sub i64 64, %31
  %32 = load i64, ptr %nbits.addr, align 8
  %sub12 = sub i64 %32, %sub11
  store i64 %sub12, ptr %nbits.addr, align 8
  %33 = load i64, ptr %nbits.addr, align 8
  %shl13 = shl i64 1, %33
  %sub14 = sub i64 %shl13, 1
  store i64 %sub14, ptr %last_mask, align 8
  %34 = load ptr, ptr %src.addr, align 8
  %arrayidx15 = getelementptr i64, ptr %34, i64 1
  %35 = load i64, ptr %arrayidx15, align 8
  %36 = load i64, ptr %last_mask, align 8
  %and16 = and i64 %35, %36
  %37 = load i64, ptr %shift.addr, align 8
  %sub17 = sub i64 64, %37
  %shl18 = shl i64 %and16, %sub17
  %38 = load ptr, ptr %dst.addr, align 8
  %39 = load i64, ptr %38, align 8
  %or19 = or i64 %39, %shl18
  store i64 %or19, ptr %38, align 8
  br label %if.end27

if.else:                                          ; preds = %while.end
  %40 = load i64, ptr %nbits.addr, align 8
  %tobool20 = icmp ne i64 %40, 0
  br i1 %tobool20, label %if.then21, label %if.end26

if.then21:                                        ; preds = %if.else
  %41 = load i64, ptr %nbits.addr, align 8
  %shl22 = shl i64 1, %41
  %sub23 = sub i64 %shl22, 1
  store i64 %sub23, ptr %last_mask, align 8
  %42 = load ptr, ptr %src.addr, align 8
  %43 = load i64, ptr %42, align 8
  %44 = load i64, ptr %shift.addr, align 8
  %shr24 = lshr i64 %43, %44
  %45 = load i64, ptr %last_mask, align 8
  %and25 = and i64 %shr24, %45
  %46 = load ptr, ptr %dst.addr, align 8
  store i64 %and25, ptr %46, align 8
  br label %if.end26

if.end26:                                         ; preds = %if.then21, %if.else
  br label %if.end27

if.end27:                                         ; preds = %if.end26, %if.then8, %if.then
  ret void
}