; Function Attrs: nofree norecurse nosync nounwind sspstrong memory(argmem: readwrite) uwtable
define dso_local void @bitmap_copy_with_src_offset(ptr noundef writeonly captures(none) %dst, ptr noundef readonly captures(none) %src, i64 noundef %shift, i64 noundef %nbits) local_unnamed_addr #1 {
entry:
  %div34 = lshr i64 %shift, 6
  %add.ptr = getelementptr i64, ptr %src, i64 %div34
  %rem = and i64 %shift, 63
  %tobool.not = icmp eq i64 %rem, 0
  br i1 %tobool.not, label %if.then, label %if.end

if.then:                                          ; preds = %entry
  %cmp.i = icmp ult i64 %nbits, 65
  br i1 %cmp.i, label %if.then.i, label %if.else.i

if.then.i:                                        ; preds = %if.then
  %0 = load i64, ptr %add.ptr, align 8
  store i64 %0, ptr %dst, align 8
  br label %if.end27

if.else.i:                                        ; preds = %if.then
  %sub.i = add i64 %nbits, 63
  %1 = lshr i64 %sub.i, 3
  %mul.i = and i64 %1, 2305843009213693944
  tail call void @llvm.memcpy.p0.p0.i64(ptr align 8 %dst, ptr readonly align 8 %add.ptr, i64 %mul.i, i1 false)
  br label %if.end27

if.end:                                           ; preds = %entry
  %notmask = shl nsw i64 -1, %rem
  %cmp37 = icmp ugt i64 %nbits, 63
  %sub2 = sub nuw nsw i64 64, %rem
  br i1 %cmp37, label %while.body, label %while.end

while.body:                                       ; preds = %if.end, %while.body
  %dst.addr.040 = phi ptr [ %incdec.ptr, %while.body ], [ %dst, %if.end ]
  %src.addr.039 = phi ptr [ %arrayidx, %while.body ], [ %add.ptr, %if.end ]
  %nbits.addr.038 = phi i64 [ %sub5, %while.body ], [ %nbits, %if.end ]
  %2 = load i64, ptr %src.addr.039, align 8
  %and = and i64 %2, %notmask
  %shr = lshr i64 %and, %rem
  store i64 %shr, ptr %dst.addr.040, align 8
  %arrayidx = getelementptr i8, ptr %src.addr.039, i64 8
  %3 = load i64, ptr %arrayidx, align 8
  %shl3 = shl i64 %3, %sub2
  %or = or disjoint i64 %shl3, %shr
  store i64 %or, ptr %dst.addr.040, align 8
  %incdec.ptr = getelementptr i8, ptr %dst.addr.040, i64 8
  %sub5 = add i64 %nbits.addr.038, -64
  %cmp = icmp ugt i64 %sub5, 63
  br i1 %cmp, label %while.body, label %while.end, !llvm.loop !21

while.end:                                        ; preds = %while.body, %if.end
  %nbits.addr.0.lcssa = phi i64 [ %nbits, %if.end ], [ %sub5, %while.body ]
  %src.addr.0.lcssa = phi ptr [ %add.ptr, %if.end ], [ %arrayidx, %while.body ]
  %dst.addr.0.lcssa = phi ptr [ %dst, %if.end ], [ %incdec.ptr, %while.body ]
  %cmp7 = icmp samesign ugt i64 %nbits.addr.0.lcssa, %sub2
  br i1 %cmp7, label %if.then8, label %if.else

if.then8:                                         ; preds = %while.end
  %4 = load i64, ptr %src.addr.0.lcssa, align 8
  %and9 = and i64 %4, %notmask
  %shr10 = lshr i64 %and9, %rem
  store i64 %shr10, ptr %dst.addr.0.lcssa, align 8
  %sub12 = sub nuw nsw i64 %nbits.addr.0.lcssa, %sub2
  %notmask36 = shl nsw i64 -1, %sub12
  %sub14 = xor i64 %notmask36, -1
  %arrayidx15 = getelementptr i8, ptr %src.addr.0.lcssa, i64 8
  %5 = load i64, ptr %arrayidx15, align 8
  %and16 = and i64 %5, %sub14
  %shl18 = shl i64 %and16, %sub2
  %or19 = or disjoint i64 %shl18, %shr10
  store i64 %or19, ptr %dst.addr.0.lcssa, align 8
  br label %if.end27

if.else:                                          ; preds = %while.end
  %tobool20.not = icmp eq i64 %nbits.addr.0.lcssa, 0
  br i1 %tobool20.not, label %if.end27, label %if.then21

if.then21:                                        ; preds = %if.else
  %notmask35 = shl nsw i64 -1, %nbits.addr.0.lcssa
  %sub23 = xor i64 %notmask35, -1
  %6 = load i64, ptr %src.addr.0.lcssa, align 8
  %shr24 = lshr i64 %6, %rem
  %and25 = and i64 %shr24, %sub23
  store i64 %and25, ptr %dst.addr.0.lcssa, align 8
  br label %if.end27

if.end27:                                         ; preds = %if.else.i, %if.then.i, %if.else, %if.then21, %if.then8
  ret void
}